Certificate:
    Data:
        Version: 3 (0x2)
        Serial Number: 268435671 (0x100000d7)
        Signature Algorithm: sha256WithRSAEncryption
        Issuer: C=DE, ST=Hessen, O=privacyidea, CN=CA001
        Validity
            Not Before: Jul 20 18:50:12 2023 GMT
            Not After : Jul 19 18:50:12 2024 GMT
        Subject: CN=selfservice,CN=user,O=realm1/emailAddress=meine
        Subject Public Key Info:
            Public Key Algorithm: rsaEncryption
                RSA Public-Key: (2048 bit)
                Modulus:
                    00:cf:3c:d4:33:0e:12:c4:e6:da:cd:b6:56:a1:1c:
                    26:bb:26:1c:8a:4a:73:a8:58:8a:b6:1e:b3:8b:99:
                    d2:1d:07:c2:92:89:79:c0:69:d8:c8:df:28:61:98:
                    1e:b3:fe:ae:2b:bd:78:a9:f7:6e:47:dc:a3:a0:16:
                    8c:85:02:c1:4e:92:fd:72:6e:f0:c8:03:29:9b:b8:
                    00:6e:c0:83:95:c8:34:20:36:9c:b3:e5:e4:e6:76:
                    73:a3:1a:ad:40:96:e0:53:54:00:ec:76:79:9a:c6:
                    0d:7e:b6:bd:29:ec:83:f3:cb:89:a4:cb:6c:00:ba:
                    0c:c5:78:0f:ff:69:b8:94:f4:04:70:43:3f:d8:9e:
                    d7:a7:fb:5d:ce:75:8e:da:e7:c4:07:b1:9d:de:6f:
                    88:4b:b6:4d:9a:cf:f9:bc:fa:9f:cd:32:6d:f6:3a:
                    0b:0d:23:42:78:ec:97:42:bf:0e:4d:60:56:e1:d3:
                    02:f2:19:cb:84:57:90:e5:70:a1:a2:83:35:86:e2:
                    da:86:9f:f9:8a:c4:79:b3:52:28:da:cb:bb:34:ca:
                    d3:da:91:4a:cf:8d:76:a2:b2:6b:9b:f9:96:fd:09:
                    2a:da:11:23:4d:f0:cb:d6:b2:b1:0e:12:6c:9a:19:
                    65:98:87:ca:e4:ee:24:ce:44:ac:90:8f:9d:1b:c5:
                    2a:9d
                Exponent: 65537 (0x10001)
        X509v3 extensions:
            X509v3 Key Usage: 
                Digital Signature, Key Encipherment
            X509v3 Basic Constraints: 
                CA:FALSE
            Netscape Cert Type: 
                SSL Server
            Netscape Comment: 
                OpenSSL Generated Server Certificate
            X509v3 Subject Key Identifier: 
                4D:07:90:AD:FF:1D:0D:E7:1A:DD:D6:2E:FA:BA:34:CB:AA:1F:24:C6
            X509v3 Authority Key Identifier: 
                keyid:F4:A7:C0:CC:91:46:AF:64:F3:91:F2:27:F8:C8:B2:6F:8A:87:32:73
                DirName:/C=DE/ST=Hessen/O=privacyidea/CN=CA001
                serial:FB:C8:EB:AC:83:CD:12:07

            X509v3 Extended Key Usage: 
                TLS Web Server Authentication
    Signature Algorithm: sha256WithRSAEncryption
         88:59:77:d6:1d:01:dc:f1:5b:04:d7:6a:ea:97:25:23:07:c9:
         3a:a2:d5:2b:13:40:fb:2a:ff:f6:a2:55:66:d6:73:0e:74:8d:
         94:66:93:28:f5:5f:3b:b1:37:37:b9:ae:78:59:e9:9e:c0:44:
         5f:4d:67:66:da:0f:6f:10:07:7c:82:22:f3:88:40:6d:90:7b:
         6b:ac:6b:65:9b:78:2c:12:96:3f:ce:04:de:7e:c2:3e:5f:9d:
         41:85:d8:a9:cb:a4:ab:b7:f5:61:88:e3:07:29:61:4c:8c:e8:
         75:09:c1:7d:67:de:b5:61:6e:1a:e3:49:ff:03:d5:82:30:c1:
         dd:83:d5:2f:eb:9e:54:b6:5a:a5:3d:64:79:65:1f:fc:af:ab:
         a4:10:40:96:cb:0b:8a:d6:6f:5d:c7:e6:d1:65:59:de:de:b2:
         9b:7c:be:9d:2c:79:f7:fc:34:51:0d:1b:70:70:d0:e1:c9:c2:
         0f:87:61:11:42:e0:5c:d2:b7:71:34:51:53:69:46:44:51:fe:
         dc:7b:81:cf:7a:97:f3:21:4a:2f:27:0a:9d:6e:bd:33:ac:3e:
         d8:d0:20:5b:22:fe:40:b4:93:8c:e6:7d:76:e8:d2:54:30:21:
         c7:05:2c:20:5f:8c:17:22:4e:d1:d9:b4:24:7d:28:2e:88:f5:
         e4:ff:64:2a
-----BEGIN CERTIFICATE-----
MIIEDzCCAvegAwIBAgIEEAAA1zANBgkqhkiG9w0BAQsFADBEMQswCQYDVQQGEwJE
RTEPMA0GA1UECAwGSGVzc2VuMRQwEgYDVQQKDAtwcml2YWN5aWRlYTEOMAwGA1UE
AwwFQ0EwMDEwHhcNMjMwNzIwMTg1MDEyWhcNMjQwNzE5MTg1MDEyWjA9MSUwIwYD
VQQDDBxzZWxmc2VydmljZSxDTj11c2VyLE89cmVhbG0xMRQwEgYJKoZIhvcNAQkB
FgVtZWluZTCCASIwDQYJKoZIhvcNAQEBBQADggEPADCCAQoCggEBAM881DMOEsTm
2s22VqEcJrsmHIpKc6hYirYes4uZ0h0HwpKJecBp2MjfKGGYHrP+riu9eKn3bkfc
o6AWjIUCwU6S/XJu8MgDKZu4AG7Ag5XINCA2nLPl5OZ2c6MarUCW4FNUAOx2eZrG
DX62vSnsg/PLiaTLbAC6DMV4D/9puJT0BHBDP9ie16f7Xc51jtrnxAexnd5viEu2
TZrP+bz6n80ybfY6Cw0jQnjsl0K/Dk1gVuHTAvIZy4RXkOVwoaKDNYbi2oaf+YrE
ebNSKNrLuzTK09qRSs+NdqKya5v5lv0JKtoRI03wy9aysQ4SbJoZZZiHyuTuJM5E
rJCPnRvFKp0CAwEAAaOCAQ4wggEKMAsGA1UdDwQEAwIFoDAJBgNVHRMEAjAAMBEG
CWCGSAGG+EIBAQQEAwIGQDAzBglghkgBhvhCAQ0EJhYkT3BlblNTTCBHZW5lcmF0
ZWQgU2VydmVyIENlcnRpZmljYXRlMB0GA1UdDgQWBBRNB5Ct/x0N5xrd1i76ujTL
qh8kxjB0BgNVHSMEbTBrgBT0p8DMkUavZPOR8if4yLJviocyc6FIpEYwRDELMAkG
A1UEBhMCREUxDzANBgNVBAgMBkhlc3NlbjEUMBIGA1UECgwLcHJpdmFjeWlkZWEx
DjAMBgNVBAMMBUNBMDAxggkA+8jrrIPNEgcwEwYDVR0lBAwwCgYIKwYBBQUHAwEw
DQYJKoZIhvcNAQELBQADggEBAIhZd9YdAdzxWwTXauqXJSMHyTqi1SsTQPsq//ai
VWbWcw50jZRmkyj1XzuxNze5rnhZ6Z7ARF9NZ2baD28QB3yCIvOIQG2Qe2usa2Wb
eCwSlj/OBN5+wj5fnUGF2KnLpKu39WGI4wcpYUyM6HUJwX1n3rVhbhrjSf8D1YIw
wd2D1S/rnlS2WqU9ZHllH/yvq6QQQJbLC4rWb13H5tFlWd7espt8vp0seff8NFEN
G3Bw0OHJwg+HYRFC4FzSt3E0UVNpRkRR/tx7gc96l/MhSi8nCp1uvTOsPtjQIFsi
/kC0k4zmfXbo0lQwIccFLCBfjBciTtHZtCR9KC6I9eT/ZCo=
-----END CERTIFICATE-----
