Certificate:
    Data:
        Version: 3 (0x2)
        Serial Number: 268435669 (0x100000d5)
        Signature Algorithm: sha256WithRSAEncryption
        Issuer: C=DE, ST=Hessen, O=privacyidea, CN=CA001
        Validity
            Not Before: Jul 20 18:49:17 2023 GMT
            Not After : Jul 19 18:49:17 2024 GMT
        Subject: CN=cornelius
        Subject Public Key Info:
            Public Key Algorithm: rsaEncryption
                RSA Public-Key: (2048 bit)
                Modulus:
                    00:da:57:92:25:b6:4f:e0:7c:4c:d8:6a:71:f7:59:
                    50:b0:3b:20:b1:3d:3c:e1:8c:65:48:af:0b:b7:fa:
                    90:7d:1c:be:63:93:49:20:34:6a:1b:ee:aa:c5:f9:
                    52:86:7d:18:69:36:87:e8:75:c8:9f:d2:f6:27:b8:
                    b4:9a:73:8c:d4:51:d2:12:d0:b8:06:63:2e:30:9e:
                    ca:8e:e5:03:11:7c:25:33:92:29:97:a9:55:ce:23:
                    22:8b:f3:70:cb:b9:04:d2:d5:8c:41:26:9b:32:b7:
                    a1:96:48:c8:68:66:85:76:00:0b:ca:07:46:ac:e0:
                    4d:6c:b5:6b:6f:e5:45:4e:4a:b5:cc:d7:5d:3c:2f:
                    b3:35:01:73:32:a3:f6:1c:e4:f1:cc:82:fb:79:d2:
                    c3:af:21:70:15:11:06:95:99:5b:34:21:25:9b:3d:
                    24:59:3d:36:f0:24:74:62:77:5d:e2:8b:d9:ef:59:
                    ba:83:51:7a:d7:96:f9:54:8e:19:19:fb:93:af:c6:
                    ef:6d:63:3b:a3:57:ef:cd:d4:68:6e:c3:fa:78:98:
                    21:de:86:3e:cb:a3:20:ff:99:e4:cd:17:c2:7d:e8:
                    00:f5:2d:df:d9:aa:c3:47:9d:eb:61:b0:64:7e:86:
                    2f:bd:ef:33:e8:7f:83:82:5b:b9:20:fc:eb:22:2a:
                    4a:05
                Exponent: 65537 (0x10001)
        X509v3 extensions:
            X509v3 Key Usage: 
                Digital Signature, Key Encipherment
            X509v3 Basic Constraints: 
                CA:FALSE
            Netscape Cert Type: 
                SSL Server
            Netscape Comment: 
                OpenSSL Generated Server Certificate
            X509v3 Subject Key Identifier: 
                53:3E:D3:D3:68:EA:F3:6D:D3:A1:69:D8:E2:27:FC:C0:FA:F2:45:B6
            X509v3 Authority Key Identifier: 
                keyid:F4:A7:C0:CC:91:46:AF:64:F3:91:F2:27:F8:C8:B2:6F:8A:87:32:73
                DirName:/C=DE/ST=Hessen/O=privacyidea/CN=CA001
                serial:FB:C8:EB:AC:83:CD:12:07

            X509v3 Extended Key Usage: 
                TLS Web Server Authentication
    Signature Algorithm: sha256WithRSAEncryption
         83:58:3a:f2:1a:66:88:00:58:c6:b2:c8:67:38:65:3b:13:d6:
         35:c2:30:5f:af:f3:1f:71:03:e9:0d:8c:74:32:8e:a9:f3:5f:
         88:b7:c7:3f:44:e4:3d:a2:4c:e4:10:00:4a:4a:f6:07:12:43:
         ea:bc:76:c1:7c:4c:43:9b:5b:ec:d9:81:8d:6a:28:0a:35:dc:
         1c:6a:e5:7a:f8:da:be:62:05:e9:cf:d7:1d:80:be:0c:55:be:
         18:fb:67:be:6f:17:91:1b:f4:e5:9f:47:4d:d0:81:da:26:4c:
         6d:31:ce:ff:74:2c:e2:af:e1:83:c8:f6:1a:1b:06:3f:87:58:
         6b:f6:c6:5c:28:3e:00:7f:62:e5:c3:87:26:4e:c9:f8:60:16:
         b1:65:b8:2e:b5:f2:fd:15:0c:80:66:34:c0:82:60:06:91:d8:
         6e:a7:c3:3f:ec:a8:6b:e9:b7:c9:f8:57:5b:c4:98:c8:0d:0b:
         e6:99:31:d0:02:93:ae:82:37:31:8a:dc:c7:e9:ce:75:22:96:
         5f:a9:57:41:e3:47:b8:30:f8:70:9b:3c:0e:e2:06:a7:65:2c:
         af:c8:75:79:f0:14:23:d6:2d:2a:c0:72:c2:9c:94:88:a7:69:
         c2:b6:12:4e:2b:76:cd:ee:57:b0:4d:55:9b:6d:b4:ec:c5:49:
         ce:70:e0:eb
-----BEGIN CERTIFICATE-----
MIID5jCCAs6gAwIBAgIEEAAA1TANBgkqhkiG9w0BAQsFADBEMQswCQYDVQQGEwJE
RTEPMA0GA1UECAwGSGVzc2VuMRQwEgYDVQQKDAtwcml2YWN5aWRlYTEOMAwGA1UE
AwwFQ0EwMDEwHhcNMjMwNzIwMTg0OTE3WhcNMjQwNzE5MTg0OTE3WjAUMRIwEAYD
VQQDDAljb3JuZWxpdXMwggEiMA0GCSqGSIb3DQEBAQUAA4IBDwAwggEKAoIBAQDa
V5Iltk/gfEzYanH3WVCwOyCxPTzhjGVIrwu3+pB9HL5jk0kgNGob7qrF+VKGfRhp
Nofodcif0vYnuLSac4zUUdIS0LgGYy4wnsqO5QMRfCUzkimXqVXOIyKL83DLuQTS
1YxBJpsyt6GWSMhoZoV2AAvKB0as4E1stWtv5UVOSrXM1108L7M1AXMyo/Yc5PHM
gvt50sOvIXAVEQaVmVs0ISWbPSRZPTbwJHRid13ii9nvWbqDUXrXlvlUjhkZ+5Ov
xu9tYzujV+/N1Ghuw/p4mCHehj7LoyD/meTNF8J96AD1Ld/ZqsNHnethsGR+hi+9
7zPof4OCW7kg/OsiKkoFAgMBAAGjggEOMIIBCjALBgNVHQ8EBAMCBaAwCQYDVR0T
BAIwADARBglghkgBhvhCAQEEBAMCBkAwMwYJYIZIAYb4QgENBCYWJE9wZW5TU0wg
R2VuZXJhdGVkIFNlcnZlciBDZXJ0aWZpY2F0ZTAdBgNVHQ4EFgQUUz7T02jq823T
oWnY4if8wPryRbYwdAYDVR0jBG0wa4AU9KfAzJFGr2TzkfIn+Miyb4qHMnOhSKRG
MEQxCzAJBgNVBAYTAkRFMQ8wDQYDVQQIDAZIZXNzZW4xFDASBgNVBAoMC3ByaXZh
Y3lpZGVhMQ4wDAYDVQQDDAVDQTAwMYIJAPvI66yDzRIHMBMGA1UdJQQMMAoGCCsG
AQUFBwMBMA0GCSqGSIb3DQEBCwUAA4IBAQCDWDryGmaIAFjGsshnOGU7E9Y1wjBf
r/MfcQPpDYx0Mo6p81+It8c/ROQ9okzkEABKSvYHEkPqvHbBfExDm1vs2YGNaigK
NdwcauV6+Nq+YgXpz9cdgL4MVb4Y+2e+bxeRG/Tln0dN0IHaJkxtMc7/dCzir+GD
yPYaGwY/h1hr9sZcKD4Af2Llw4cmTsn4YBaxZbgutfL9FQyAZjTAgmAGkdhup8M/
7Khr6bfJ+FdbxJjIDQvmmTHQApOugjcxitzH6c51IpZfqVdB40e4MPhwmzwO4gan
ZSyvyHV58BQj1i0qwHLCnJSIp2nCthJOK3bN7lewTVWbbbTsxUnOcODr
-----END CERTIFICATE-----
