Certificate:
    Data:
        Version: 3 (0x2)
        Serial Number: 268435667 (0x100000d3)
        Signature Algorithm: sha256WithRSAEncryption
        Issuer: C=DE, ST=Hessen, O=privacyidea, CN=CA001
        Validity
            Not Before: Jul 20 18:49:16 2023 GMT
            Not After : Jul 19 18:49:16 2024 GMT
        Subject: C=DE, ST=Hessen, O=privacyidea, CN=requester.localdomain
        Subject Public Key Info:
            Public Key Algorithm: rsaEncryption
                RSA Public-Key: (2048 bit)
                Modulus:
                    00:cd:be:14:4f:fa:ce:01:3f:42:22:1b:1d:9c:af:
                    dd:92:d2:7f:db:6c:b7:3e:39:43:43:6b:13:03:f1:
                    05:f4:07:74:bc:76:69:28:0b:af:19:8e:d7:fc:e3:
                    cd:c6:58:f2:ca:7f:08:6d:53:fc:07:02:44:24:c6:
                    b4:34:4c:8c:04:fe:33:0e:40:e2:20:ba:02:73:5a:
                    f7:f5:4f:63:6e:cc:c6:b6:df:54:1d:37:39:7d:51:
                    36:26:5f:bd:dc:3f:a8:8b:6b:a2:ae:b6:9d:d6:21:
                    e7:df:41:b8:7a:28:2a:68:48:ca:a8:2d:ed:e1:e9:
                    46:5e:5a:72:6d:b4:84:38:87:91:fd:94:11:0b:28:
                    84:c6:c2:2f:2a:fb:01:f9:36:7a:09:75:d1:33:88:
                    3c:73:41:5b:c8:bf:94:89:70:a1:f0:c0:b9:2e:50:
                    53:1e:b1:17:64:69:f4:2d:81:e0:a9:0d:0e:32:e9:
                    ba:55:8a:85:f1:1b:6f:49:79:b4:7f:88:c3:0d:3e:
                    54:88:9b:3d:1f:38:8c:04:f3:ee:6a:63:2b:f5:c6:
                    db:b4:83:aa:c4:78:41:3a:7d:4b:e1:c8:3e:71:ca:
                    1b:61:59:ea:c6:c4:ca:32:5e:c9:e9:bf:12:29:e6:
                    c6:c3:63:fe:a0:55:da:7a:f1:60:98:4d:26:ed:fa:
                    70:2d
                Exponent: 65537 (0x10001)
        X509v3 extensions:
            X509v3 Key Usage: 
                Digital Signature, Key Encipherment
            X509v3 Basic Constraints: 
                CA:FALSE
            Netscape Cert Type: 
                SSL Server
            Netscape Comment: 
                OpenSSL Generated Server Certificate
            X509v3 Subject Key Identifier: 
                53:3F:ED:5D:09:07:B3:65:7B:AB:45:C9:24:5B:09:77:80:0A:96:ED
            X509v3 Authority Key Identifier: 
                keyid:F4:A7:C0:CC:91:46:AF:64:F3:91:F2:27:F8:C8:B2:6F:8A:87:32:73
                DirName:/C=DE/ST=Hessen/O=privacyidea/CN=CA001
                serial:FB:C8:EB:AC:83:CD:12:07

            X509v3 Extended Key Usage: 
                TLS Web Server Authentication
    Signature Algorithm: sha256WithRSAEncryption
         24:72:fa:d5:41:82:cd:42:5e:83:10:02:bf:47:c6:a0:0b:c6:
         a4:97:12:74:96:c8:b4:2c:ad:91:fd:5f:04:48:77:1b:e7:ee:
         14:5f:85:6f:39:da:d5:06:af:c1:8b:16:bf:a6:84:ea:94:a9:
         e9:58:19:b4:14:13:e1:d8:02:a7:08:51:80:38:fc:48:cc:95:
         18:00:66:19:61:89:c2:d8:12:8f:95:91:19:74:e2:a5:ce:86:
         f6:ef:b5:f2:e5:71:88:0e:f4:65:07:0a:32:3f:0f:04:2e:1a:
         1e:05:40:1f:5e:03:cb:ee:e3:17:05:0d:0f:9d:fe:51:99:f1:
         c2:e4:8d:89:c2:ff:fc:d4:42:a4:b0:64:78:52:22:be:ad:67:
         4f:74:17:49:9b:5f:4b:91:32:e6:7e:72:8e:f6:82:c3:a7:17:
         ff:58:68:b0:6c:70:c0:f5:5e:79:7a:c9:b7:63:19:2e:ff:56:
         ac:8d:f9:53:63:bf:65:fc:8f:f7:7d:87:66:58:c3:10:c5:2d:
         ca:b1:b5:22:66:b8:97:cf:0c:2e:bc:a7:5e:a2:5f:84:a9:c6:
         25:86:04:7f:1f:66:50:e0:93:e9:5b:b1:6d:43:30:30:49:a3:
         08:4f:89:4e:b6:00:7e:0d:a3:75:25:86:5e:18:06:28:4f:fa:
         a0:21:65:53
-----BEGIN CERTIFICATE-----
MIIEJjCCAw6gAwIBAgIEEAAA0zANBgkqhkiG9w0BAQsFADBEMQswCQYDVQQGEwJE
RTEPMA0GA1UECAwGSGVzc2VuMRQwEgYDVQQKDAtwcml2YWN5aWRlYTEOMAwGA1UE
AwwFQ0EwMDEwHhcNMjMwNzIwMTg0OTE2WhcNMjQwNzE5MTg0OTE2WjBUMQswCQYD
VQQGEwJERTEPMA0GA1UECAwGSGVzc2VuMRQwEgYDVQQKDAtwcml2YWN5aWRlYTEe
MBwGA1UEAwwVcmVxdWVzdGVyLmxvY2FsZG9tYWluMIIBIjANBgkqhkiG9w0BAQEF
AAOCAQ8AMIIBCgKCAQEAzb4UT/rOAT9CIhsdnK/dktJ/22y3PjlDQ2sTA/EF9Ad0
vHZpKAuvGY7X/OPNxljyyn8IbVP8BwJEJMa0NEyMBP4zDkDiILoCc1r39U9jbszG
tt9UHTc5fVE2Jl+93D+oi2uirrad1iHn30G4eigqaEjKqC3t4elGXlpybbSEOIeR
/ZQRCyiExsIvKvsB+TZ6CXXRM4g8c0FbyL+UiXCh8MC5LlBTHrEXZGn0LYHgqQ0O
Mum6VYqF8RtvSXm0f4jDDT5UiJs9HziMBPPuamMr9cbbtIOqxHhBOn1L4cg+ccob
YVnqxsTKMl7J6b8SKebGw2P+oFXaevFgmE0m7fpwLQIDAQABo4IBDjCCAQowCwYD
VR0PBAQDAgWgMAkGA1UdEwQCMAAwEQYJYIZIAYb4QgEBBAQDAgZAMDMGCWCGSAGG
+EIBDQQmFiRPcGVuU1NMIEdlbmVyYXRlZCBTZXJ2ZXIgQ2VydGlmaWNhdGUwHQYD
VR0OBBYEFFM/7V0JB7Nle6tFySRbCXeACpbtMHQGA1UdIwRtMGuAFPSnwMyRRq9k
85HyJ/jIsm+KhzJzoUikRjBEMQswCQYDVQQGEwJERTEPMA0GA1UECAwGSGVzc2Vu
MRQwEgYDVQQKDAtwcml2YWN5aWRlYTEOMAwGA1UEAwwFQ0EwMDGCCQD7yOusg80S
BzATBgNVHSUEDDAKBggrBgEFBQcDATANBgkqhkiG9w0BAQsFAAOCAQEAJHL61UGC
zUJegxACv0fGoAvGpJcSdJbItCytkf1fBEh3G+fuFF+Fbzna1QavwYsWv6aE6pSp
6VgZtBQT4dgCpwhRgDj8SMyVGABmGWGJwtgSj5WRGXTipc6G9u+18uVxiA70ZQcK
Mj8PBC4aHgVAH14Dy+7jFwUND53+UZnxwuSNicL//NRCpLBkeFIivq1nT3QXSZtf
S5Ey5n5yjvaCw6cX/1hosGxwwPVeeXrJt2MZLv9WrI35U2O/ZfyP932HZljDEMUt
yrG1Ima4l88MLrynXqJfhKnGJYYEfx9mUOCT6VuxbUMwMEmjCE+JTrYAfg2jdSWG
XhgGKE/6oCFlUw==
-----END CERTIFICATE-----
