Certificate:
    Data:
        Version: 3 (0x2)
        Serial Number: 268435670 (0x100000d6)
        Signature Algorithm: sha256WithRSAEncryption
        Issuer: C=DE, ST=Hessen, O=privacyidea, CN=CA001
        Validity
            Not Before: Jul 20 18:49:17 2023 GMT
            Not After : Jul 19 18:49:17 2024 GMT
        Subject: OU=realm1, CN=cornelius/emailAddress=user@localhost.localdomain
        Subject Public Key Info:
            Public Key Algorithm: rsaEncryption
                RSA Public-Key: (2048 bit)
                Modulus:
                    00:c6:58:02:ff:35:a6:f8:8b:68:1b:83:34:ce:1d:
                    7f:89:4b:81:e2:93:dd:c0:1c:1e:66:ca:13:64:db:
                    56:5f:9b:ca:b3:a3:c9:14:55:0d:79:0c:97:30:2c:
                    1c:e7:6e:ff:9a:35:e3:48:df:43:a8:35:e5:3b:47:
                    44:f5:3e:03:68:ed:27:b5:2c:aa:08:ca:4a:63:b8:
                    eb:23:30:86:56:17:63:74:f9:a2:b6:e5:2d:b1:c3:
                    18:b7:c3:75:83:8d:72:72:0e:4f:3a:0e:45:60:df:
                    47:b2:9c:0c:1f:33:78:14:e2:aa:a4:49:aa:29:b0:
                    b0:37:74:38:ef:c9:68:c6:90:27:1c:29:61:98:6d:
                    aa:48:e7:b3:54:6f:ab:cb:f9:42:74:c3:65:9f:5b:
                    8b:e4:30:c4:89:c2:86:d9:f9:f5:0e:27:3d:e9:19:
                    2b:21:a9:3e:d1:6e:cb:3c:52:5f:f4:01:f8:d3:66:
                    04:da:b3:bb:7c:18:63:1b:f8:d8:44:31:e1:bc:2b:
                    3a:5d:1f:c7:36:f1:94:a9:d2:6d:a4:5d:99:c7:4c:
                    ab:59:b0:89:ab:76:3b:3e:99:18:30:56:0e:50:aa:
                    32:4c:82:64:ec:9f:ef:b2:17:8f:79:21:cc:1e:ec:
                    b7:af:32:05:2a:fb:42:11:05:ac:b0:24:09:a1:c9:
                    dc:ab
                Exponent: 65537 (0x10001)
        X509v3 extensions:
            X509v3 Key Usage: 
                Digital Signature, Key Encipherment
            X509v3 Basic Constraints: 
                CA:FALSE
            Netscape Cert Type: 
                SSL Server
            Netscape Comment: 
                OpenSSL Generated Server Certificate
            X509v3 Subject Key Identifier: 
                97:F9:AF:13:7C:6A:1A:10:1E:04:51:3C:22:E6:38:C1:5E:E5:16:7E
            X509v3 Authority Key Identifier: 
                keyid:F4:A7:C0:CC:91:46:AF:64:F3:91:F2:27:F8:C8:B2:6F:8A:87:32:73
                DirName:/C=DE/ST=Hessen/O=privacyidea/CN=CA001
                serial:FB:C8:EB:AC:83:CD:12:07

            X509v3 Extended Key Usage: 
                TLS Web Server Authentication
    Signature Algorithm: sha256WithRSAEncryption
         67:71:02:75:71:ba:7a:a9:79:22:8e:7b:ec:5c:35:12:a1:a1:
         4f:78:a6:fb:40:45:a6:f0:4e:de:19:60:e4:9b:a4:c3:0a:9a:
         59:e0:67:4c:4b:c6:2f:77:db:0d:24:62:b9:60:29:9c:8d:c0:
         25:1b:3c:f5:e9:e4:f2:9f:dd:ce:50:b7:b2:9a:1c:a3:6d:11:
         09:38:05:ff:6f:64:c1:64:2d:e5:61:02:05:03:ea:00:fe:53:
         b3:1e:16:81:66:e1:e1:15:7e:1a:86:71:d6:4d:5c:99:1b:9f:
         a4:e7:28:34:36:0e:c1:1f:5a:cf:64:6f:33:16:bd:de:1d:e1:
         e2:b3:d2:96:3b:a9:27:d9:39:e4:0a:5a:14:e6:25:14:35:05:
         0d:ad:5b:1a:0c:36:6f:9a:f5:e0:d1:eb:8f:15:5b:f6:25:f6:
         e5:dd:c1:0b:9f:c7:77:f1:9d:69:11:a8:19:8d:cf:34:d3:f6:
         9c:61:94:e0:dc:ca:c6:8a:bf:7e:63:89:cf:ac:4e:cc:98:f8:
         21:37:0a:e9:ce:d6:8f:f1:5d:d1:19:ec:0b:5a:a0:78:99:47:
         e5:a3:62:a1:47:06:f0:7e:c6:04:6a:e0:f5:40:c3:aa:e3:80:
         08:e6:e7:56:a7:fe:80:48:ed:17:a0:89:a4:21:18:63:2d:73:
         d6:3f:15:34
-----BEGIN CERTIFICATE-----
MIIEIjCCAwqgAwIBAgIEEAAA1jANBgkqhkiG9w0BAQsFADBEMQswCQYDVQQGEwJE
RTEPMA0GA1UECAwGSGVzc2VuMRQwEgYDVQQKDAtwcml2YWN5aWRlYTEOMAwGA1UE
AwwFQ0EwMDEwHhcNMjMwNzIwMTg0OTE3WhcNMjQwNzE5MTg0OTE3WjBQMQ8wDQYD
VQQLDAZyZWFsbTExEjAQBgNVBAMMCWNvcm5lbGl1czEpMCcGCSqGSIb3DQEJARYa
dXNlckBsb2NhbGhvc3QubG9jYWxkb21haW4wggEiMA0GCSqGSIb3DQEBAQUAA4IB
DwAwggEKAoIBAQDGWAL/Nab4i2gbgzTOHX+JS4Hik93AHB5myhNk21Zfm8qzo8kU
VQ15DJcwLBznbv+aNeNI30OoNeU7R0T1PgNo7Se1LKoIykpjuOsjMIZWF2N0+aK2
5S2xwxi3w3WDjXJyDk86DkVg30eynAwfM3gU4qqkSaopsLA3dDjvyWjGkCccKWGY
bapI57NUb6vL+UJ0w2WfW4vkMMSJwobZ+fUOJz3pGSshqT7Rbss8Ul/0AfjTZgTa
s7t8GGMb+NhEMeG8KzpdH8c28ZSp0m2kXZnHTKtZsImrdjs+mRgwVg5QqjJMgmTs
n++yF495Icwe7LevMgUq+0IRBaywJAmhydyrAgMBAAGjggEOMIIBCjALBgNVHQ8E
BAMCBaAwCQYDVR0TBAIwADARBglghkgBhvhCAQEEBAMCBkAwMwYJYIZIAYb4QgEN
BCYWJE9wZW5TU0wgR2VuZXJhdGVkIFNlcnZlciBDZXJ0aWZpY2F0ZTAdBgNVHQ4E
FgQUl/mvE3xqGhAeBFE8IuY4wV7lFn4wdAYDVR0jBG0wa4AU9KfAzJFGr2TzkfIn
+Miyb4qHMnOhSKRGMEQxCzAJBgNVBAYTAkRFMQ8wDQYDVQQIDAZIZXNzZW4xFDAS
BgNVBAoMC3ByaXZhY3lpZGVhMQ4wDAYDVQQDDAVDQTAwMYIJAPvI66yDzRIHMBMG
A1UdJQQMMAoGCCsGAQUFBwMBMA0GCSqGSIb3DQEBCwUAA4IBAQBncQJ1cbp6qXki
jnvsXDUSoaFPeKb7QEWm8E7eGWDkm6TDCppZ4GdMS8Yvd9sNJGK5YCmcjcAlGzz1
6eTyn93OULeymhyjbREJOAX/b2TBZC3lYQIFA+oA/lOzHhaBZuHhFX4ahnHWTVyZ
G5+k5yg0Ng7BH1rPZG8zFr3eHeHis9KWO6kn2TnkCloU5iUUNQUNrVsaDDZvmvXg
0euPFVv2Jfbl3cELn8d38Z1pEagZjc800/acYZTg3MrGir9+Y4nPrE7MmPghNwrp
ztaP8V3RGewLWqB4mUflo2KhRwbwfsYEauD1QMOq44AI5udWp/6ASO0XoImkIRhj
LXPWPxU0
-----END CERTIFICATE-----
