Certificate:
    Data:
        Version: 3 (0x2)
        Serial Number: 268435668 (0x100000d4)
        Signature Algorithm: sha256WithRSAEncryption
        Issuer: C=DE, ST=Hessen, O=privacyidea, CN=CA001
        Validity
            Not Before: Jul 20 18:49:16 2023 GMT
            Not After : Jul 19 18:49:16 2024 GMT
        Subject: CN=cn=cornelius
        Subject Public Key Info:
            Public Key Algorithm: rsaEncryption
                RSA Public-Key: (2048 bit)
                Modulus:
                    00:ce:a4:39:30:25:73:e4:9d:e6:37:3b:85:59:83:
                    ef:a3:6e:f9:83:b9:f7:48:b0:0b:d5:e8:05:40:61:
                    cd:c5:5a:bc:11:2f:5b:4e:d0:4f:b8:d0:e8:7f:05:
                    ab:ad:24:0b:90:d4:3f:60:ec:15:b6:4e:be:8e:d9:
                    26:ab:f2:2f:7f:35:c2:a6:a1:bc:52:3a:d9:88:fb:
                    b3:fa:71:20:b9:51:0e:f8:af:0d:16:be:bd:5d:b9:
                    ab:30:d5:ac:6b:3c:bc:ee:28:4a:4f:6f:d4:09:15:
                    f7:98:af:77:db:36:15:2e:1e:ee:0f:d0:d9:60:ad:
                    db:b9:c4:3f:c6:25:32:f9:e3:e9:50:b8:ec:84:a0:
                    c4:d2:9c:fd:ce:25:80:85:7e:3a:ad:4c:a7:40:1b:
                    0a:58:18:9f:c2:5e:36:e1:d1:44:e9:46:b6:dc:b4:
                    28:a2:ec:ed:02:f7:25:79:e1:86:8e:69:67:52:ee:
                    82:21:b7:84:2d:cc:e7:a8:39:57:7d:a3:1e:e9:50:
                    63:77:29:ab:e4:a5:ff:dc:ee:4c:4b:5e:08:2b:62:
                    08:2d:75:b8:26:6c:93:eb:f5:45:ea:cd:83:58:53:
                    15:46:e6:6b:43:c1:2f:d9:88:4b:3d:d5:fd:0c:ff:
                    51:52:ed:54:fb:27:2d:59:ef:4c:50:ce:71:cd:eb:
                    5a:99
                Exponent: 65537 (0x10001)
        X509v3 extensions:
            X509v3 Key Usage: 
                Digital Signature, Key Encipherment
            X509v3 Basic Constraints: 
                CA:FALSE
            Netscape Cert Type: 
                SSL Server
            Netscape Comment: 
                OpenSSL Generated Server Certificate
            X509v3 Subject Key Identifier: 
                0E:D5:BA:4E:7D:92:57:15:FD:61:4E:34:5B:E9:62:D0:20:1C:7D:08
            X509v3 Authority Key Identifier: 
                keyid:F4:A7:C0:CC:91:46:AF:64:F3:91:F2:27:F8:C8:B2:6F:8A:87:32:73
                DirName:/C=DE/ST=Hessen/O=privacyidea/CN=CA001
                serial:FB:C8:EB:AC:83:CD:12:07

            X509v3 Extended Key Usage: 
                TLS Web Server Authentication
    Signature Algorithm: sha256WithRSAEncryption
         32:a2:ae:7f:b3:7b:ac:27:85:82:0c:97:7f:3f:28:8e:a3:57:
         e4:a4:06:b7:7f:1d:64:62:f1:8d:65:3c:63:29:4c:22:6a:f7:
         91:6b:10:ed:7e:97:9b:93:3c:4f:b1:c7:b9:b6:94:a5:dc:1c:
         a7:c3:c1:30:6f:81:83:fc:ff:b6:b5:fa:ea:55:14:ca:6c:cb:
         02:b9:9b:ff:83:9d:12:6a:ba:72:cd:b9:0d:83:21:5c:9c:e3:
         59:05:f5:91:db:6f:fb:e8:f3:e4:a2:7a:4d:62:ce:54:8d:91:
         f2:f4:a8:45:60:12:e5:5e:dc:3e:72:10:1a:85:be:b3:1d:e0:
         57:c8:5a:a7:4a:05:0c:7b:9c:3c:2e:88:de:a5:b0:66:f0:f6:
         b0:05:e1:36:07:86:d1:47:86:22:d0:a9:b9:c5:17:18:1d:a8:
         cb:16:c4:14:14:a0:a9:51:82:0b:a4:38:ac:7d:55:1f:16:b8:
         19:6a:28:d9:3c:d0:ee:3a:c1:c2:08:48:ca:1a:f6:8a:8c:46:
         dc:9c:6a:72:25:fc:c3:d9:59:c3:90:19:81:14:7f:a7:24:7c:
         ad:bb:6e:e5:90:e8:d5:22:b7:ff:72:cb:5b:b9:fc:8f:13:68:
         bf:73:81:f2:d7:80:72:ea:24:c7:26:f8:81:11:0c:34:3b:9a:
         f1:77:32:f8
-----BEGIN CERTIFICATE-----
MIID6TCCAtGgAwIBAgIEEAAA1DANBgkqhkiG9w0BAQsFADBEMQswCQYDVQQGEwJE
RTEPMA0GA1UECAwGSGVzc2VuMRQwEgYDVQQKDAtwcml2YWN5aWRlYTEOMAwGA1UE
AwwFQ0EwMDEwHhcNMjMwNzIwMTg0OTE2WhcNMjQwNzE5MTg0OTE2WjAXMRUwEwYD
VQQDDAxjbj1jb3JuZWxpdXMwggEiMA0GCSqGSIb3DQEBAQUAA4IBDwAwggEKAoIB
AQDOpDkwJXPkneY3O4VZg++jbvmDufdIsAvV6AVAYc3FWrwRL1tO0E+40Oh/Baut
JAuQ1D9g7BW2Tr6O2Sar8i9/NcKmobxSOtmI+7P6cSC5UQ74rw0Wvr1duasw1axr
PLzuKEpPb9QJFfeYr3fbNhUuHu4P0Nlgrdu5xD/GJTL54+lQuOyEoMTSnP3OJYCF
fjqtTKdAGwpYGJ/CXjbh0UTpRrbctCii7O0C9yV54YaOaWdS7oIht4QtzOeoOVd9
ox7pUGN3Kavkpf/c7kxLXggrYggtdbgmbJPr9UXqzYNYUxVG5mtDwS/ZiEs91f0M
/1FS7VT7Jy1Z70xQznHN61qZAgMBAAGjggEOMIIBCjALBgNVHQ8EBAMCBaAwCQYD
VR0TBAIwADARBglghkgBhvhCAQEEBAMCBkAwMwYJYIZIAYb4QgENBCYWJE9wZW5T
U0wgR2VuZXJhdGVkIFNlcnZlciBDZXJ0aWZpY2F0ZTAdBgNVHQ4EFgQUDtW6Tn2S
VxX9YU40W+li0CAcfQgwdAYDVR0jBG0wa4AU9KfAzJFGr2TzkfIn+Miyb4qHMnOh
SKRGMEQxCzAJBgNVBAYTAkRFMQ8wDQYDVQQIDAZIZXNzZW4xFDASBgNVBAoMC3By
aXZhY3lpZGVhMQ4wDAYDVQQDDAVDQTAwMYIJAPvI66yDzRIHMBMGA1UdJQQMMAoG
CCsGAQUFBwMBMA0GCSqGSIb3DQEBCwUAA4IBAQAyoq5/s3usJ4WCDJd/PyiOo1fk
pAa3fx1kYvGNZTxjKUwiaveRaxDtfpebkzxPsce5tpSl3Bynw8Ewb4GD/P+2tfrq
VRTKbMsCuZv/g50SarpyzbkNgyFcnONZBfWR22/76PPkonpNYs5UjZHy9KhFYBLl
Xtw+chAahb6zHeBXyFqnSgUMe5w8LojepbBm8PawBeE2B4bRR4Yi0Km5xRcYHajL
FsQUFKCpUYILpDisfVUfFrgZaijZPNDuOsHCCEjKGvaKjEbcnGpyJfzD2VnDkBmB
FH+nJHytu27lkOjVIrf/cstbufyPE2i/c4Hy14By6iTHJviBEQw0O5rxdzL4
-----END CERTIFICATE-----
